; Function Attrs: mustprogress uwtable
define void @_ZN9grpc_core8channelz8BaseNode16RenderJsonStringB5cxx11Ev(ptr dead_on_unwind noalias writable sret(%"class.std::__cxx11::basic_string") align 8 %0, ptr noundef nonnull align 8 dereferenceable(64) %1) local_unnamed_addr #3 align 2 personality ptr @__gxx_personality_v0 {
  %3 = alloca %class.anon, align 1
  %4 = alloca %"class.grpc_core::experimental::Json", align 8
  call void @llvm.lifetime.start.p0(i64 56, ptr nonnull %4) #32
  %5 = load ptr, ptr %1, align 8, !tbaa !8
  %6 = getelementptr inbounds nuw i8, ptr %5, i64 16
  %7 = load ptr, ptr %6, align 8
  call void %7(ptr dead_on_unwind nonnull writable sret(%"class.grpc_core::experimental::Json") align 8 %4, ptr noundef nonnull align 8 dereferenceable(64) %1)
  invoke void @_ZN9grpc_core8JsonDumpB5cxx11ERKNS_12experimental4JsonEi(ptr dead_on_unwind writable sret(%"class.std::__cxx11::basic_string") align 8 %0, ptr noundef nonnull align 8 dereferenceable(56) %4, i32 noundef 0)
          to label %8 unwind label %15

8:                                                ; preds = %2
  %9 = getelementptr inbounds nuw i8, ptr %4, i64 48
  %10 = load i8, ptr %9, align 8, !tbaa !26
  %.not.i = icmp eq i8 %10, -1
  br i1 %.not.i, label %_ZN9grpc_core12experimental4JsonD2Ev.exit, label %11, !prof !28

11:                                               ; preds = %8
  call void @llvm.lifetime.start.p0(i64 1, ptr nonnull %3) #32
  invoke void @_ZSt10__do_visitIvZNSt8__detail9__variant16_Variant_storageILb0EJSt9monostatebN9grpc_core12experimental4Json11NumberValueENSt7__cxx1112basic_stringIcSt11char_traitsIcESaIcEEESt3mapISD_S6_St4lessISD_ESaISt4pairIKSD_S6_EEESt6vectorIS6_SaIS6_EEEE8_M_resetEvEUlOT_E_JRSt7variantIJS3_bS7_SD_SL_SO_EEEEDcOT0_DpOT1_(ptr noundef nonnull align 1 dereferenceable(1) %3, ptr noundef nonnull align 8 dereferenceable(56) %4)
          to label %.noexc.i unwind label %12

.noexc.i:                                         ; preds = %11
  call void @llvm.lifetime.end.p0(i64 1, ptr nonnull %3) #32
  br label %_ZN9grpc_core12experimental4JsonD2Ev.exit

12:                                               ; preds = %11
  %13 = landingpad { ptr, i32 }
          catch ptr null
  %14 = extractvalue { ptr, i32 } %13, 0
  call void @__clang_call_terminate(ptr %14) #31
  unreachable

_ZN9grpc_core12experimental4JsonD2Ev.exit:        ; preds = %8, %.noexc.i
  call void @llvm.lifetime.end.p0(i64 56, ptr nonnull %4) #32
  ret void

15:                                               ; preds = %2
  %16 = landingpad { ptr, i32 }
          cleanup
  call void @_ZN9grpc_core12experimental4JsonD2Ev(ptr noundef nonnull align 8 dereferenceable(56) %4) #32
  call void @llvm.lifetime.end.p0(i64 56, ptr nonnull %4) #32
  resume { ptr, i32 } %16
}